target datalayout = "e-m:e-p270:32:32-p271:32:32-p272:64:64-i64:64-i128:128-f80:128-n8:16:32:64-S128"
target triple = "x86_64-pc-linux-gnu"

%"class.std::ios_base" = type { ptr, i64, i64, i32, i32, i32, ptr, %"struct.std::ios_base::_Words", [8 x %"struct.std::ios_base::_Words"], i32, ptr, %"class.std::locale" }
%"struct.std::ios_base::_Words" = type { ptr, i64 }
%"class.std::locale" = type { ptr }
%class.escaped = type { ptr, i8, i32 }

@.str = private unnamed_addr constant [2 x i8] c" \00", align 1

; Function Attrs: inlinehint mustprogress nounwind uwtable
define linkonce_odr noundef i32 @_ZStorSt12_Ios_IostateS_(i32 noundef %0, i32 noundef %1) #9 comdat {
  %3 = alloca i32, align 4
  %4 = alloca i32, align 4
  store i32 %0, ptr %3, align 4, !tbaa !47
  store i32 %1, ptr %4, align 4, !tbaa !47
  %5 = load i32, ptr %3, align 4, !tbaa !47
  %6 = load i32, ptr %4, align 4, !tbaa !47
  %7 = or i32 %5, %6
  ret i32 %7
}

; Function Attrs: mustprogress nounwind uwtable
define available_externally noundef i32 @_ZNKSt9basic_iosIcSt11char_traitsIcEE7rdstateEv(ptr noundef nonnull align 8 dereferenceable(264) %0) #4 align 2 {
  %2 = alloca ptr, align 8
  store ptr %0, ptr %2, align 8, !tbaa !45
  %3 = load ptr, ptr %2, align 8
  %4 = getelementptr inbounds nuw %"class.std::ios_base", ptr %3, i32 0, i32 5
  %5 = load i32, ptr %4, align 8, !tbaa !48
  ret i32 %5
}

; Function Attrs: mustprogress nounwind uwtable
define linkonce_odr hidden noundef i64 @_ZNSt11char_traitsIcE6lengthEPKc(ptr noundef %0) #4 comdat align 2 {
  %2 = alloca ptr, align 8
  store ptr %0, ptr %2, align 8, !tbaa !23
  %3 = load ptr, ptr %2, align 8, !tbaa !23
  %4 = call i64 @strlen(ptr noundef %3) #3
  ret i64 %4
}

; Function Attrs: mustprogress uwtable
define available_externally void @_ZNSt9basic_iosIcSt11char_traitsIcEE8setstateESt12_Ios_Iostate(ptr noundef nonnull align 8 dereferenceable(264) %0, i32 noundef %1) #5 align 2 {
  %3 = alloca ptr, align 8
  %4 = alloca i32, align 4
  store ptr %0, ptr %3, align 8, !tbaa !45
  store i32 %1, ptr %4, align 4, !tbaa !47
  %5 = load ptr, ptr %3, align 8
  %6 = call noundef i32 @_ZNKSt9basic_iosIcSt11char_traitsIcEE7rdstateEv(ptr noundef nonnull align 8 dereferenceable(264) %5)
  %7 = load i32, ptr %4, align 4, !tbaa !47
  %8 = call noundef i32 @_ZStorSt12_Ios_IostateS_(i32 noundef %6, i32 noundef %7)
  call void @_ZNSt9basic_iosIcSt11char_traitsIcEE5clearESt12_Ios_Iostate(ptr noundef nonnull align 8 dereferenceable(264) %5, i32 noundef %8)
  ret void
}

; Function Attrs: mustprogress nounwind uwtable
define linkonce_odr hidden noundef i64 @_ZNKSt8ios_base5widthEv(ptr noundef nonnull align 8 dereferenceable(216) %0) #4 comdat align 2 {
  %2 = alloca ptr, align 8
  store ptr %0, ptr %2, align 8, !tbaa !34
  %3 = load ptr, ptr %2, align 8
  %4 = getelementptr inbounds nuw %"class.std::ios_base", ptr %3, i32 0, i32 2
  %5 = load i64, ptr %4, align 8, !tbaa !36
  ret i64 %5
}

; Function Attrs: inlinehint mustprogress uwtable
define available_externally noundef nonnull align 8 dereferenceable(8) ptr @_ZStlsISt11char_traitsIcEERSt13basic_ostreamIcT_ES5_PKc(ptr noundef nonnull align 8 dereferenceable(8) %0, ptr noundef %1) #8 {
  %3 = alloca ptr, align 8
  %4 = alloca ptr, align 8
  store ptr %0, ptr %3, align 8, !tbaa !7
  store ptr %1, ptr %4, align 8, !tbaa !23
  %5 = load ptr, ptr %4, align 8, !tbaa !23
  %6 = icmp ne ptr %5, null
  br i1 %6, label %13, label %7

7:                                                ; preds = %2
  %8 = load ptr, ptr %3, align 8, !tbaa !7
  %9 = load ptr, ptr %8, align 8, !tbaa !32
  %10 = getelementptr i8, ptr %9, i64 -24
  %11 = load i64, ptr %10, align 8
  %12 = getelementptr inbounds i8, ptr %8, i64 %11
  call void @_ZNSt9basic_iosIcSt11char_traitsIcEE8setstateESt12_Ios_Iostate(ptr noundef nonnull align 8 dereferenceable(264) %12, i32 noundef 1)
  br label %19

13:                                               ; preds = %2
  %14 = load ptr, ptr %3, align 8, !tbaa !7
  %15 = load ptr, ptr %4, align 8, !tbaa !23
  %16 = load ptr, ptr %4, align 8, !tbaa !23
  %17 = call noundef i64 @_ZNSt11char_traitsIcE6lengthEPKc(ptr noundef %16)
  %18 = call noundef nonnull align 8 dereferenceable(8) ptr @_ZSt16__ostream_insertIcSt11char_traitsIcEERSt13basic_ostreamIT_T0_ES6_PKS3_l(ptr noundef nonnull align 8 dereferenceable(8) %14, ptr noundef %15, i64 noundef %17)
  br label %19

19:                                               ; preds = %13, %7
  %20 = load ptr, ptr %3, align 8, !tbaa !7
  ret ptr %20
}

; Function Attrs: inlinehint mustprogress uwtable
define available_externally noundef nonnull align 8 dereferenceable(8) ptr @_ZStlsISt11char_traitsIcEERSt13basic_ostreamIcT_ES5_c(ptr noundef nonnull align 8 dereferenceable(8) %0, i8 noundef signext %1) #8 {
  %3 = alloca ptr, align 8
  %4 = alloca ptr, align 8
  %5 = alloca i8, align 1
  store ptr %0, ptr %4, align 8, !tbaa !7
  store i8 %1, ptr %5, align 1, !tbaa !24
  %6 = load ptr, ptr %4, align 8, !tbaa !7
  %7 = load ptr, ptr %6, align 8, !tbaa !32
  %8 = getelementptr i8, ptr %7, i64 -24
  %9 = load i64, ptr %8, align 8
  %10 = getelementptr inbounds i8, ptr %6, i64 %9
  %11 = call noundef i64 @_ZNKSt8ios_base5widthEv(ptr noundef nonnull align 8 dereferenceable(216) %10)
  %12 = icmp ne i64 %11, 0
  br i1 %12, label %13, label %16

13:                                               ; preds = %2
  %14 = load ptr, ptr %4, align 8, !tbaa !7
  %15 = call noundef nonnull align 8 dereferenceable(8) ptr @_ZSt16__ostream_insertIcSt11char_traitsIcEERSt13basic_ostreamIT_T0_ES6_PKS3_l(ptr noundef nonnull align 8 dereferenceable(8) %14, ptr noundef %5, i64 noundef 1)
  store ptr %15, ptr %3, align 8
  br label %21

16:                                               ; preds = %2
  %17 = load ptr, ptr %4, align 8, !tbaa !7
  %18 = load i8, ptr %5, align 1, !tbaa !24
  %19 = call noundef nonnull align 8 dereferenceable(8) ptr @_ZNSo3putEc(ptr noundef nonnull align 8 dereferenceable(8) %17, i8 noundef signext %18)
  %20 = load ptr, ptr %4, align 8, !tbaa !7
  store ptr %20, ptr %3, align 8
  br label %21

21:                                               ; preds = %16, %13
  %22 = load ptr, ptr %3, align 8
  ret ptr %22
}

; Function Attrs: mustprogress nounwind uwtable
define hidden noundef ptr @_ZNK7escaped3endEv(ptr noundef nonnull align 8 dereferenceable(16) %0) #4 align 2 {
  %2 = alloca ptr, align 8
  %3 = alloca ptr, align 8
  %4 = alloca ptr, align 8
  %5 = alloca ptr, align 8
  store ptr %0, ptr %3, align 8, !tbaa !17
  %6 = load ptr, ptr %3, align 8
  %7 = getelementptr inbounds nuw %class.escaped, ptr %6, i32 0, i32 0
  %8 = load ptr, ptr %7, align 8, !tbaa !19
  %9 = icmp eq ptr %8, null
  br i1 %9, label %10, label %11

10:                                               ; preds = %1
  store ptr null, ptr %2, align 8
  br label %39

11:                                               ; preds = %1
  call void @llvm.lifetime.start.p0(i64 8, ptr %4) #3
  %12 = getelementptr inbounds nuw %class.escaped, ptr %6, i32 0, i32 0
  %13 = load ptr, ptr %12, align 8, !tbaa !19
  store ptr %13, ptr %4, align 8, !tbaa !23
  call void @llvm.lifetime.start.p0(i64 8, ptr %5) #3
  %14 = getelementptr inbounds nuw %class.escaped, ptr %6, i32 0, i32 0
  %15 = load ptr, ptr %14, align 8, !tbaa !19
  store ptr %15, ptr %5, align 8, !tbaa !23
  br label %16

16:                                               ; preds = %36, %11
  %17 = load ptr, ptr %4, align 8, !tbaa !23
  %18 = load i8, ptr %17, align 1, !tbaa !24
  %19 = icmp ne i8 %18, 0
  br i1 %19, label %20, label %37

20:                                               ; preds = %16
  %21 = getelementptr inbounds nuw %class.escaped, ptr %6, i32 0, i32 1
  %22 = load i8, ptr %21, align 8, !tbaa !25, !range !26, !noundef !27
  %23 = trunc i8 %22 to i1
  br i1 %23, label %24, label %29

24:                                               ; preds = %20
  %25 = load ptr, ptr %4, align 8, !tbaa !23
  %26 = load i8, ptr %25, align 1, !tbaa !24
  %27 = sext i8 %26 to i32
  %28 = icmp ne i32 %27, 10
  br i1 %28, label %29, label %33

29:                                               ; preds = %24, %20
  %30 = load ptr, ptr %4, align 8, !tbaa !23
  %31 = getelementptr inbounds nuw i8, ptr %30, i32 1
  store ptr %31, ptr %4, align 8, !tbaa !23
  %32 = load ptr, ptr %4, align 8, !tbaa !23
  store ptr %32, ptr %5, align 8, !tbaa !23
  br label %36

33:                                               ; preds = %24
  %34 = load ptr, ptr %4, align 8, !tbaa !23
  %35 = getelementptr inbounds nuw i8, ptr %34, i32 1
  store ptr %35, ptr %4, align 8, !tbaa !23
  br label %36

36:                                               ; preds = %33, %29
  br label %16, !llvm.loop !28

37:                                               ; preds = %16
  %38 = load ptr, ptr %5, align 8, !tbaa !23
  store ptr %38, ptr %2, align 8
  call void @llvm.lifetime.end.p0(i64 8, ptr %5) #3
  call void @llvm.lifetime.end.p0(i64 8, ptr %4) #3
  br label %39

39:                                               ; preds = %37, %10
  %40 = load ptr, ptr %2, align 8
  ret ptr %40
}

; Function Attrs: mustprogress uwtable
define hidden void @_ZNK7escaped7displayERSo(ptr noundef nonnull align 8 dereferenceable(16) %0, ptr noundef nonnull align 8 dereferenceable(8) %1) #5 align 2 {
  %3 = alloca ptr, align 8
  %4 = alloca ptr, align 8
  %5 = alloca ptr, align 8
  %6 = alloca ptr, align 8
  %7 = alloca i8, align 1
  %8 = alloca i32, align 4
  store ptr %0, ptr %3, align 8, !tbaa !17
  store ptr %1, ptr %4, align 8, !tbaa !7
  %9 = load ptr, ptr %3, align 8
  call void @llvm.lifetime.start.p0(i64 8, ptr %5) #3
  %10 = getelementptr inbounds nuw %class.escaped, ptr %9, i32 0, i32 0
  %11 = load ptr, ptr %10, align 8, !tbaa !19
  store ptr %11, ptr %5, align 8, !tbaa !23
  call void @llvm.lifetime.start.p0(i64 8, ptr %6) #3
  %12 = call noundef ptr @_ZNK7escaped3endEv(ptr noundef nonnull align 8 dereferenceable(16) %9)
  store ptr %12, ptr %6, align 8, !tbaa !23
  br label %13

13:                                               ; preds = %48, %2
  %14 = load ptr, ptr %5, align 8, !tbaa !23
  %15 = load ptr, ptr %6, align 8, !tbaa !23
  %16 = icmp ne ptr %14, %15
  br i1 %16, label %17, label %51

17:                                               ; preds = %13
  call void @llvm.lifetime.start.p0(i64 1, ptr %7) #3
  %18 = load ptr, ptr %5, align 8, !tbaa !23
  %19 = load i8, ptr %18, align 1, !tbaa !24
  store i8 %19, ptr %7, align 1, !tbaa !24
  %20 = load i8, ptr %7, align 1, !tbaa !24
  %21 = sext i8 %20 to i32
  %22 = icmp eq i32 %21, 34
  br i1 %22, label %23, label %26

23:                                               ; preds = %17
  %24 = load ptr, ptr %4, align 8, !tbaa !7
  %25 = call noundef nonnull align 8 dereferenceable(8) ptr @_ZStlsISt11char_traitsIcEERSt13basic_ostreamIcT_ES5_c(ptr noundef nonnull align 8 dereferenceable(8) %24, i8 noundef signext 92)
  br label %26

26:                                               ; preds = %23, %17
  %27 = load ptr, ptr %4, align 8, !tbaa !7
  %28 = load i8, ptr %7, align 1, !tbaa !24
  %29 = call noundef nonnull align 8 dereferenceable(8) ptr @_ZStlsISt11char_traitsIcEERSt13basic_ostreamIcT_ES5_c(ptr noundef nonnull align 8 dereferenceable(8) %27, i8 noundef signext %28)
  %30 = load i8, ptr %7, align 1, !tbaa !24
  %31 = sext i8 %30 to i32
  %32 = icmp eq i32 %31, 10
  br i1 %32, label %33, label %47

33:                                               ; preds = %26
  call void @llvm.lifetime.start.p0(i64 4, ptr %8) #3
  store i32 0, ptr %8, align 4, !tbaa !3
  br label %34

34:                                               ; preds = %43, %33
  %35 = load i32, ptr %8, align 4, !tbaa !3
  %36 = getelementptr inbounds nuw %class.escaped, ptr %9, i32 0, i32 2
  %37 = load i32, ptr %36, align 4, !tbaa !29
  %38 = icmp ult i32 %35, %37
  br i1 %38, label %40, label %39

39:                                               ; preds = %34
  call void @llvm.lifetime.end.p0(i64 4, ptr %8) #3
  br label %46

40:                                               ; preds = %34
  %41 = load ptr, ptr %4, align 8, !tbaa !7
  %42 = call noundef nonnull align 8 dereferenceable(8) ptr @_ZStlsISt11char_traitsIcEERSt13basic_ostreamIcT_ES5_PKc(ptr noundef nonnull align 8 dereferenceable(8) %41, ptr noundef @.str)
  br label %43

43:                                               ; preds = %40
  %44 = load i32, ptr %8, align 4, !tbaa !3
  %45 = add i32 %44, 1
  store i32 %45, ptr %8, align 4, !tbaa !3
  br label %34, !llvm.loop !30

46:                                               ; preds = %39
  br label %47

47:                                               ; preds = %46, %26
  call void @llvm.lifetime.end.p0(i64 1, ptr %7) #3
  br label %48

48:                                               ; preds = %47
  %49 = load ptr, ptr %5, align 8, !tbaa !23
  %50 = getelementptr inbounds nuw i8, ptr %49, i32 1
  store ptr %50, ptr %5, align 8, !tbaa !23
  br label %13, !llvm.loop !31

51:                                               ; preds = %13
  call void @llvm.lifetime.end.p0(i64 8, ptr %6) #3
  call void @llvm.lifetime.end.p0(i64 8, ptr %5) #3
  ret void
}