; Function Attrs: mustprogress uwtable
define hidden void @_ZNK7escaped7displayERSo(ptr noundef nonnull readonly align 8 captures(none) dereferenceable(16) %0, ptr noundef nonnull align 8 dereferenceable(8) %1) local_unnamed_addr #5 align 2 {
  %3 = alloca i8, align 1
  %4 = alloca i8, align 1
  %5 = load ptr, ptr %0, align 8, !tbaa !13
  %6 = icmp eq ptr %5, null
  br i1 %6, label %._crit_edge, label %.preheader.i

.preheader.i:                                     ; preds = %2
  %7 = load i8, ptr %5, align 1, !tbaa !17
  %.not14.i = icmp eq i8 %7, 0
  br i1 %.not14.i, label %._crit_edge, label %.lr.ph.i

.lr.ph.i:                                         ; preds = %.preheader.i
  %8 = getelementptr inbounds nuw i8, ptr %0, i64 8
  %9 = load i8, ptr %8, align 8, !tbaa !18, !range !19, !noundef !20
  %10 = trunc nuw i8 %9 to i1
  br i1 %10, label %.lr.ph.split.i, label %.lr.ph.split.us.i

.lr.ph.split.us.i:                                ; preds = %.lr.ph.i, %.lr.ph.split.us.i
  %.0815.us.i = phi ptr [ %11, %.lr.ph.split.us.i ], [ %5, %.lr.ph.i ]
  %11 = getelementptr inbounds nuw i8, ptr %.0815.us.i, i64 1
  %12 = load i8, ptr %11, align 1, !tbaa !17
  %.not.us.i = icmp eq i8 %12, 0
  br i1 %.not.us.i, label %.lr.ph23, label %.lr.ph.split.us.i, !llvm.loop !21

.lr.ph.split.i:                                   ; preds = %.lr.ph.i, %.lr.ph.split.i
  %13 = phi i8 [ %15, %.lr.ph.split.i ], [ %7, %.lr.ph.i ]
  %.016.i = phi ptr [ %spec.select.i, %.lr.ph.split.i ], [ %5, %.lr.ph.i ]
  %.0815.i = phi ptr [ %14, %.lr.ph.split.i ], [ %5, %.lr.ph.i ]
  %.not13.i = icmp eq i8 %13, 10
  %14 = getelementptr inbounds nuw i8, ptr %.0815.i, i64 1
  %spec.select.i = select i1 %.not13.i, ptr %.016.i, ptr %14
  %15 = load i8, ptr %14, align 1, !tbaa !17
  %.not.i = icmp eq i8 %15, 0
  br i1 %.not.i, label %_ZNK7escaped3endEv.exit, label %.lr.ph.split.i, !llvm.loop !21

_ZNK7escaped3endEv.exit:                          ; preds = %.lr.ph.split.i
  %.not21 = icmp eq ptr %5, %spec.select.i
  br i1 %.not21, label %._crit_edge, label %.lr.ph23

.lr.ph23:                                         ; preds = %.lr.ph.split.us.i, %_ZNK7escaped3endEv.exit
  %.010.i33 = phi ptr [ %spec.select.i, %_ZNK7escaped3endEv.exit ], [ %11, %.lr.ph.split.us.i ]
  %invariant.gep34 = getelementptr i8, ptr %1, i64 16
  %16 = getelementptr inbounds nuw i8, ptr %0, i64 12
  br label %17

17:                                               ; preds = %.lr.ph23, %.loopexit
  %.01222 = phi ptr [ %5, %.lr.ph23 ], [ %45, %.loopexit ]
  %18 = load i8, ptr %.01222, align 1, !tbaa !17
  %19 = icmp eq i8 %18, 34
  br i1 %19, label %20, label %29

20:                                               ; preds = %17
  call void @llvm.lifetime.start.p0(i64 1, ptr nonnull %4)
  store i8 92, ptr %4, align 1, !tbaa !17
  %21 = load ptr, ptr %1, align 8, !tbaa !22
  %22 = getelementptr i8, ptr %21, i64 -24
  %23 = load i64, ptr %22, align 8
  %gep = getelementptr i8, ptr %invariant.gep34, i64 %23
  %24 = load i64, ptr %gep, align 8, !tbaa !24
  %.not.i13 = icmp eq i64 %24, 0
  br i1 %.not.i13, label %27, label %25

25:                                               ; preds = %20
  %26 = call noundef nonnull align 8 dereferenceable(8) ptr @_ZSt16__ostream_insertIcSt11char_traitsIcEERSt13basic_ostreamIT_T0_ES6_PKS3_l(ptr noundef nonnull align 8 dereferenceable(8) %1, ptr noundef nonnull %4, i64 noundef 1)
  br label %_ZStlsISt11char_traitsIcEERSt13basic_ostreamIcT_ES5_c.exit

27:                                               ; preds = %20
  %28 = call noundef nonnull align 8 dereferenceable(8) ptr @_ZNSo3putEc(ptr noundef nonnull align 8 dereferenceable(8) %1, i8 noundef signext 92)
  br label %_ZStlsISt11char_traitsIcEERSt13basic_ostreamIcT_ES5_c.exit

_ZStlsISt11char_traitsIcEERSt13basic_ostreamIcT_ES5_c.exit: ; preds = %25, %27
  call void @llvm.lifetime.end.p0(i64 1, ptr nonnull %4)
  br label %29

29:                                               ; preds = %_ZStlsISt11char_traitsIcEERSt13basic_ostreamIcT_ES5_c.exit, %17
  call void @llvm.lifetime.start.p0(i64 1, ptr nonnull %3)
  store i8 %18, ptr %3, align 1, !tbaa !17
  %30 = load ptr, ptr %1, align 8, !tbaa !22
  %31 = getelementptr i8, ptr %30, i64 -24
  %32 = load i64, ptr %31, align 8
  %gep20 = getelementptr i8, ptr %invariant.gep34, i64 %32
  %33 = load i64, ptr %gep20, align 8, !tbaa !24
  %.not.i14 = icmp eq i64 %33, 0
  br i1 %.not.i14, label %36, label %34

34:                                               ; preds = %29
  %35 = call noundef nonnull align 8 dereferenceable(8) ptr @_ZSt16__ostream_insertIcSt11char_traitsIcEERSt13basic_ostreamIT_T0_ES6_PKS3_l(ptr noundef nonnull align 8 dereferenceable(8) %1, ptr noundef nonnull %3, i64 noundef 1)
  br label %_ZStlsISt11char_traitsIcEERSt13basic_ostreamIcT_ES5_c.exit16

36:                                               ; preds = %29
  %37 = call noundef nonnull align 8 dereferenceable(8) ptr @_ZNSo3putEc(ptr noundef nonnull align 8 dereferenceable(8) %1, i8 noundef signext %18)
  br label %_ZStlsISt11char_traitsIcEERSt13basic_ostreamIcT_ES5_c.exit16

_ZStlsISt11char_traitsIcEERSt13basic_ostreamIcT_ES5_c.exit16: ; preds = %34, %36
  call void @llvm.lifetime.end.p0(i64 1, ptr nonnull %3)
  %38 = icmp eq i8 %18, 10
  %39 = load i32, ptr %16, align 4
  %40 = icmp ne i32 %39, 0
  %or.cond = select i1 %38, i1 %40, i1 false
  br i1 %or.cond, label %.lr.ph, label %.loopexit

.lr.ph:                                           ; preds = %_ZStlsISt11char_traitsIcEERSt13basic_ostreamIcT_ES5_c.exit16, %.lr.ph
  %.018 = phi i32 [ %42, %.lr.ph ], [ 0, %_ZStlsISt11char_traitsIcEERSt13basic_ostreamIcT_ES5_c.exit16 ]
  %41 = call noundef nonnull align 8 dereferenceable(8) ptr @_ZSt16__ostream_insertIcSt11char_traitsIcEERSt13basic_ostreamIT_T0_ES6_PKS3_l(ptr noundef nonnull align 8 dereferenceable(8) %1, ptr noundef nonnull @.str, i64 noundef 1)
  %42 = add nuw i32 %.018, 1
  %43 = load i32, ptr %16, align 4, !tbaa !34
  %44 = icmp ult i32 %42, %43
  br i1 %44, label %.lr.ph, label %.loopexit, !llvm.loop !35

.loopexit:                                        ; preds = %.lr.ph, %_ZStlsISt11char_traitsIcEERSt13basic_ostreamIcT_ES5_c.exit16
  %45 = getelementptr inbounds nuw i8, ptr %.01222, i64 1
  %.not = icmp eq ptr %45, %.010.i33
  br i1 %.not, label %._crit_edge, label %17, !llvm.loop !36

._crit_edge:                                      ; preds = %.loopexit, %.preheader.i, %2, %_ZNK7escaped3endEv.exit
  ret void
}